target datalayout = "e-m:e-p270:32:32-p271:32:32-p272:64:64-i64:64-i128:128-f80:128-n8:16:32:64-S128"
target triple = "x86_64-unknown-linux-gnu"

%"class.std::__cxx11::basic_string" = type { %"struct.std::__cxx11::basic_string<char>::_Alloc_hider", i64, %union.anon }
%"struct.std::__cxx11::basic_string<char>::_Alloc_hider" = type { ptr }
%union.anon = type { i64, [8 x i8] }
%"class.std::allocator.0" = type { i8 }
%"struct.Assimp::OpenGEX::OpenGEXImporter::VertexContainer" = type { %"class.std::vector.3", i64, ptr, %"class.std::vector.3", [8 x i64], [8 x ptr] }
%"class.std::vector.3" = type { %"struct.std::_Vector_base.4" }
%"struct.std::_Vector_base.4" = type { %"struct.std::_Vector_base<aiVector3t<float>, std::allocator<aiVector3t<float>>>::_Vector_impl" }
%"struct.std::_Vector_base<aiVector3t<float>, std::allocator<aiVector3t<float>>>::_Vector_impl" = type { %"struct.std::_Vector_base<aiVector3t<float>, std::allocator<aiVector3t<float>>>::_Vector_impl_data" }
%"struct.std::_Vector_base<aiVector3t<float>, std::allocator<aiVector3t<float>>>::_Vector_impl_data" = type { ptr, ptr, ptr }
%"class.Assimp::OpenGEX::OpenGEXImporter" = type { %"class.Assimp::BaseImporter", ptr, %"class.std::map", %"class.std::vector.11", %"class.std::map.16", %"class.std::map.16", ptr, [4 x %"struct.Assimp::OpenGEX::MetricInfo"], ptr, %"struct.Assimp::OpenGEX::OpenGEXImporter::VertexContainer", ptr, ptr, ptr, ptr, i32, %"class.std::vector.24", %"class.std::vector.29", %"class.std::vector.34", %"class.std::vector.39", %"class.std::vector.44" }
%"class.Assimp::BaseImporter" = type { ptr, double, double, %"class.std::__cxx11::basic_string", %"class.std::__exception_ptr::exception_ptr", ptr }
%"class.std::__exception_ptr::exception_ptr" = type { ptr }
%"class.std::map" = type { %"class.std::_Rb_tree" }
%"class.std::_Rb_tree" = type { %"struct.std::_Rb_tree<aiNode *, std::pair<aiNode *const, std::unique_ptr<Assimp::OpenGEX::OpenGEXImporter::ChildInfo>>, std::_Select1st<std::pair<aiNode *const, std::unique_ptr<Assimp::OpenGEX::OpenGEXImporter::ChildInfo>>>, std::less<aiNode *>>::_Rb_tree_impl" }
%"struct.std::_Rb_tree<aiNode *, std::pair<aiNode *const, std::unique_ptr<Assimp::OpenGEX::OpenGEXImporter::ChildInfo>>, std::_Select1st<std::pair<aiNode *const, std::unique_ptr<Assimp::OpenGEX::OpenGEXImporter::ChildInfo>>>, std::less<aiNode *>>::_Rb_tree_impl" = type { %"struct.std::_Rb_tree_key_compare", %"struct.std::_Rb_tree_header" }
%"struct.std::_Rb_tree_key_compare" = type { %"struct.std::less" }
%"struct.std::less" = type { i8 }
%"struct.std::_Rb_tree_header" = type { %"struct.std::_Rb_tree_node_base", i64 }
%"struct.std::_Rb_tree_node_base" = type { i32, ptr, ptr, ptr }
%"class.std::vector.11" = type { %"struct.std::_Vector_base.12" }
%"struct.std::_Vector_base.12" = type { %"struct.std::_Vector_base<std::unique_ptr<aiMesh>, std::allocator<std::unique_ptr<aiMesh>>>::_Vector_impl" }
%"struct.std::_Vector_base<std::unique_ptr<aiMesh>, std::allocator<std::unique_ptr<aiMesh>>>::_Vector_impl" = type { %"struct.std::_Vector_base<std::unique_ptr<aiMesh>, std::allocator<std::unique_ptr<aiMesh>>>::_Vector_impl_data" }
%"struct.std::_Vector_base<std::unique_ptr<aiMesh>, std::allocator<std::unique_ptr<aiMesh>>>::_Vector_impl_data" = type { ptr, ptr, ptr }
%"class.std::map.16" = type { %"class.std::_Rb_tree.17" }
%"class.std::_Rb_tree.17" = type { %"struct.std::_Rb_tree<std::__cxx11::basic_string<char>, std::pair<const std::__cxx11::basic_string<char>, unsigned long>, std::_Select1st<std::pair<const std::__cxx11::basic_string<char>, unsigned long>>, std::less<std::__cxx11::basic_string<char>>>::_Rb_tree_impl" }
%"struct.std::_Rb_tree<std::__cxx11::basic_string<char>, std::pair<const std::__cxx11::basic_string<char>, unsigned long>, std::_Select1st<std::pair<const std::__cxx11::basic_string<char>, unsigned long>>, std::less<std::__cxx11::basic_string<char>>>::_Rb_tree_impl" = type { %"struct.std::_Rb_tree_key_compare.21", %"struct.std::_Rb_tree_header" }
%"struct.std::_Rb_tree_key_compare.21" = type { %"struct.std::less.22" }
%"struct.std::less.22" = type { i8 }
%"struct.Assimp::OpenGEX::MetricInfo" = type { %"class.std::__cxx11::basic_string", float, i32 }
%"class.std::vector.24" = type { %"struct.std::_Vector_base.25" }
%"struct.std::_Vector_base.25" = type { %"struct.std::_Vector_base<aiMaterial *, std::allocator<aiMaterial *>>::_Vector_impl" }
%"struct.std::_Vector_base<aiMaterial *, std::allocator<aiMaterial *>>::_Vector_impl" = type { %"struct.std::_Vector_base<aiMaterial *, std::allocator<aiMaterial *>>::_Vector_impl_data" }
%"struct.std::_Vector_base<aiMaterial *, std::allocator<aiMaterial *>>::_Vector_impl_data" = type { ptr, ptr, ptr }
%"class.std::vector.29" = type { %"struct.std::_Vector_base.30" }
%"struct.std::_Vector_base.30" = type { %"struct.std::_Vector_base<aiCamera *, std::allocator<aiCamera *>>::_Vector_impl" }
%"struct.std::_Vector_base<aiCamera *, std::allocator<aiCamera *>>::_Vector_impl" = type { %"struct.std::_Vector_base<aiCamera *, std::allocator<aiCamera *>>::_Vector_impl_data" }
%"struct.std::_Vector_base<aiCamera *, std::allocator<aiCamera *>>::_Vector_impl_data" = type { ptr, ptr, ptr }
%"class.std::vector.34" = type { %"struct.std::_Vector_base.35" }
%"struct.std::_Vector_base.35" = type { %"struct.std::_Vector_base<aiLight *, std::allocator<aiLight *>>::_Vector_impl" }
%"struct.std::_Vector_base<aiLight *, std::allocator<aiLight *>>::_Vector_impl" = type { %"struct.std::_Vector_base<aiLight *, std::allocator<aiLight *>>::_Vector_impl_data" }
%"struct.std::_Vector_base<aiLight *, std::allocator<aiLight *>>::_Vector_impl_data" = type { ptr, ptr, ptr }
%"class.std::vector.39" = type { %"struct.std::_Vector_base.40" }
%"struct.std::_Vector_base.40" = type { %"struct.std::_Vector_base<aiNode *, std::allocator<aiNode *>>::_Vector_impl" }
%"struct.std::_Vector_base<aiNode *, std::allocator<aiNode *>>::_Vector_impl" = type { %"struct.std::_Vector_base<aiNode *, std::allocator<aiNode *>>::_Vector_impl_data" }
%"struct.std::_Vector_base<aiNode *, std::allocator<aiNode *>>::_Vector_impl_data" = type { ptr, ptr, ptr }
%"class.std::vector.44" = type { %"struct.std::_Vector_base.45" }
%"struct.std::_Vector_base.45" = type { %"struct.std::_Vector_base<std::unique_ptr<Assimp::OpenGEX::OpenGEXImporter::RefInfo>, std::allocator<std::unique_ptr<Assimp::OpenGEX::OpenGEXImporter::RefInfo>>>::_Vector_impl" }
%"struct.std::_Vector_base<std::unique_ptr<Assimp::OpenGEX::OpenGEXImporter::RefInfo>, std::allocator<std::unique_ptr<Assimp::OpenGEX::OpenGEXImporter::RefInfo>>>::_Vector_impl" = type { %"struct.std::_Vector_base<std::unique_ptr<Assimp::OpenGEX::OpenGEXImporter::RefInfo>, std::allocator<std::unique_ptr<Assimp::OpenGEX::OpenGEXImporter::RefInfo>>>::_Vector_impl_data" }
%"struct.std::_Vector_base<std::unique_ptr<Assimp::OpenGEX::OpenGEXImporter::RefInfo>, std::allocator<std::unique_ptr<Assimp::OpenGEX::OpenGEXImporter::RefInfo>>>::_Vector_impl_data" = type { ptr, ptr, ptr }
%struct.aiString = type { i32, [1024 x i8] }
%class.aiVector3t = type { float, float, float }
%"struct.ODDLParser::Property" = type { ptr, ptr, ptr, ptr }
%struct.aiLight = type { %struct.aiString, i32, %class.aiVector3t, %class.aiVector3t, %class.aiVector3t, float, float, float, %struct.aiColor3D, %struct.aiColor3D, %struct.aiColor3D, float, float, %class.aiVector2t }
%struct.aiColor3D = type { float, float, float }
%class.aiVector2t = type { float, float }

@.str.31 = private unnamed_addr constant [6 x i8] c"curve\00", align 1
@.str.32 = private unnamed_addr constant [6 x i8] c"scale\00", align 1
@.str.48 = private unnamed_addr constant [50 x i8] c"basic_string: construction from null is not valid\00", align 1

; Function Attrs: mustprogress nounwind uwtable
define linkonce_odr noundef i64 @_ZNSt11char_traitsIcE6lengthEPKc(ptr noundef %__s) #0 comdat align 2 {
entry:
  %__s.addr = alloca ptr, align 8
  store ptr %__s, ptr %__s.addr, align 8
  %0 = load ptr, ptr %__s.addr, align 8
  %call = call i64 @strlen(ptr noundef %0) #5
  ret i64 %call
}

; Function Attrs: mustprogress nounwind uwtable
define linkonce_odr void @_ZNSt7__cxx1112basic_stringIcSt11char_traitsIcESaIcEE12_Alloc_hiderD2Ev(ptr noundef nonnull align 8 dereferenceable(8) %this) unnamed_addr #0 comdat align 2 {
entry:
  %this.addr = alloca ptr, align 8
  store ptr %this, ptr %this.addr, align 8
  %this1 = load ptr, ptr %this.addr, align 8
  call void @_ZNSaIcED2Ev(ptr noundef nonnull align 1 dereferenceable(1) %this1) #5
  ret void
}

; Function Attrs: mustprogress uwtable
define linkonce_odr void @_ZNSt7__cxx1112basic_stringIcSt11char_traitsIcESaIcEEC2IS3_EEPKcRKS3_(ptr noundef nonnull align 8 dereferenceable(32) %this, ptr noundef %__s, ptr noundef nonnull align 1 dereferenceable(1) %__a) unnamed_addr #4 comdat align 2 personality ptr @__gxx_personality_v0 {
entry:
  %this.addr = alloca ptr, align 8
  %__s.addr = alloca ptr, align 8
  %__a.addr = alloca ptr, align 8
  %exn.slot = alloca ptr, align 8
  %ehselector.slot = alloca i32, align 4
  %__end = alloca ptr, align 8
  store ptr %this, ptr %this.addr, align 8
  store ptr %__s, ptr %__s.addr, align 8
  store ptr %__a, ptr %__a.addr, align 8
  %this1 = load ptr, ptr %this.addr, align 8
  %_M_dataplus = getelementptr inbounds %"class.std::__cxx11::basic_string", ptr %this1, i32 0, i32 0
  %call = call noundef ptr @_ZNSt7__cxx1112basic_stringIcSt11char_traitsIcESaIcEE13_M_local_dataEv(ptr noundef nonnull align 8 dereferenceable(32) %this1)
  %0 = load ptr, ptr %__a.addr, align 8
  call void @_ZNSt7__cxx1112basic_stringIcSt11char_traitsIcESaIcEE12_Alloc_hiderC1EPcRKS3_(ptr noundef nonnull align 8 dereferenceable(8) %_M_dataplus, ptr noundef %call, ptr noundef nonnull align 1 dereferenceable(1) %0)
  %1 = load ptr, ptr %__s.addr, align 8
  %cmp = icmp eq ptr %1, null
  br i1 %cmp, label %if.then, label %if.end

if.then:                                          ; preds = %entry
  invoke void @_ZSt19__throw_logic_errorPKc(ptr noundef @.str.48) #16
          to label %invoke.cont unwind label %lpad

invoke.cont:                                      ; preds = %if.then
  unreachable

lpad:                                             ; preds = %invoke.cont2, %if.end, %if.then
  %2 = landingpad { ptr, i32 }
          cleanup
  %3 = extractvalue { ptr, i32 } %2, 0
  store ptr %3, ptr %exn.slot, align 8
  %4 = extractvalue { ptr, i32 } %2, 1
  store i32 %4, ptr %ehselector.slot, align 4
  call void @_ZNSt7__cxx1112basic_stringIcSt11char_traitsIcESaIcEE12_Alloc_hiderD2Ev(ptr noundef nonnull align 8 dereferenceable(8) %_M_dataplus) #5
  br label %eh.resume

if.end:                                           ; preds = %entry
  %5 = load ptr, ptr %__s.addr, align 8
  %6 = load ptr, ptr %__s.addr, align 8
  %call3 = invoke noundef i64 @_ZNSt11char_traitsIcE6lengthEPKc(ptr noundef %6)
          to label %invoke.cont2 unwind label %lpad

invoke.cont2:                                     ; preds = %if.end
  %add.ptr = getelementptr inbounds i8, ptr %5, i64 %call3
  store ptr %add.ptr, ptr %__end, align 8
  %7 = load ptr, ptr %__s.addr, align 8
  %8 = load ptr, ptr %__end, align 8
  invoke void @_ZNSt7__cxx1112basic_stringIcSt11char_traitsIcESaIcEE12_M_constructIPKcEEvT_S8_St20forward_iterator_tag(ptr noundef nonnull align 8 dereferenceable(32) %this1, ptr noundef %7, ptr noundef %8)
          to label %invoke.cont4 unwind label %lpad

invoke.cont4:                                     ; preds = %invoke.cont2
  ret void

eh.resume:                                        ; preds = %lpad
  %exn = load ptr, ptr %exn.slot, align 8
  %sel = load i32, ptr %ehselector.slot, align 4
  %lpad.val = insertvalue { ptr, i32 } poison, ptr %exn, 0
  %lpad.val5 = insertvalue { ptr, i32 } %lpad.val, i32 %sel, 1
  resume { ptr, i32 } %lpad.val5
}

; Function Attrs: mustprogress uwtable
define hidden void @_ZN6Assimp7OpenGEX15OpenGEXImporter15handleAttenNodeEPN10ODDLParser7DDLNodeEP7aiScene(ptr noundef nonnull align 8 dereferenceable(776) %this, ptr noundef %node, ptr noundef %0) #4 align 2 personality ptr @__gxx_personality_v0 {
entry:
  %this.addr = alloca ptr, align 8
  %node.addr = alloca ptr, align 8
  %.addr = alloca ptr, align 8
  %prop = alloca ptr, align 8
  %ref.tmp = alloca %"class.std::__cxx11::basic_string", align 8
  %ref.tmp2 = alloca %"class.std::allocator.0", align 1
  %exn.slot = alloca ptr, align 8
  %ehselector.slot = alloca i32, align 4
  %val = alloca ptr, align 8
  %floatVal = alloca float, align 4
  store ptr %this, ptr %this.addr, align 8
  store ptr %node, ptr %node.addr, align 8
  store ptr %0, ptr %.addr, align 8
  %this1 = load ptr, ptr %this.addr, align 8
  %1 = load ptr, ptr %node.addr, align 8
  %cmp = icmp eq ptr null, %1
  br i1 %cmp, label %if.then, label %if.end

if.then:                                          ; preds = %entry
  br label %if.end18

if.end:                                           ; preds = %entry
  %2 = load ptr, ptr %node.addr, align 8
  call void @_ZNSaIcEC1Ev(ptr noundef nonnull align 1 dereferenceable(1) %ref.tmp2) #5
  invoke void @_ZNSt7__cxx1112basic_stringIcSt11char_traitsIcESaIcEEC2IS3_EEPKcRKS3_(ptr noundef nonnull align 8 dereferenceable(32) %ref.tmp, ptr noundef @.str.31, ptr noundef nonnull align 1 dereferenceable(1) %ref.tmp2)
          to label %invoke.cont unwind label %lpad

invoke.cont:                                      ; preds = %if.end
  %call = invoke noundef ptr @_ZN10ODDLParser7DDLNode18findPropertyByNameERKNSt7__cxx1112basic_stringIcSt11char_traitsIcESaIcEEE(ptr noundef nonnull align 8 dereferenceable(136) %2, ptr noundef nonnull align 8 dereferenceable(32) %ref.tmp)
          to label %invoke.cont4 unwind label %lpad3

invoke.cont4:                                     ; preds = %invoke.cont
  call void @_ZNSt7__cxx1112basic_stringIcSt11char_traitsIcESaIcEED1Ev(ptr noundef nonnull align 8 dereferenceable(32) %ref.tmp) #5
  call void @_ZNSaIcED1Ev(ptr noundef nonnull align 1 dereferenceable(1) %ref.tmp2) #5
  store ptr %call, ptr %prop, align 8
  %3 = load ptr, ptr %prop, align 8
  %cmp5 = icmp ne ptr null, %3
  br i1 %cmp5, label %if.then6, label %if.end18

if.then6:                                         ; preds = %invoke.cont4
  %4 = load ptr, ptr %prop, align 8
  %m_value = getelementptr inbounds %"struct.ODDLParser::Property", ptr %4, i32 0, i32 1
  %5 = load ptr, ptr %m_value, align 8
  %cmp7 = icmp ne ptr null, %5
  br i1 %cmp7, label %if.then8, label %if.end17

if.then8:                                         ; preds = %if.then6
  %6 = load ptr, ptr %node.addr, align 8
  %call9 = call noundef ptr @_ZNK10ODDLParser7DDLNode8getValueEv(ptr noundef nonnull align 8 dereferenceable(136) %6)
  store ptr %call9, ptr %val, align 8
  %7 = load ptr, ptr %val, align 8
  %call10 = call noundef float @_ZNK10ODDLParser5Value8getFloatEv(ptr noundef nonnull align 8 dereferenceable(32) %7)
  store float %call10, ptr %floatVal, align 4
  %8 = load ptr, ptr %prop, align 8
  %m_value11 = getelementptr inbounds %"struct.ODDLParser::Property", ptr %8, i32 0, i32 1
  %9 = load ptr, ptr %m_value11, align 8
  %call12 = call noundef ptr @_ZNK10ODDLParser5Value9getStringEv(ptr noundef nonnull align 8 dereferenceable(32) %9)
  %call13 = call i32 @strncmp(ptr noundef @.str.32, ptr noundef %call12, i64 noundef 5) #19
  %cmp14 = icmp eq i32 0, %call13
  br i1 %cmp14, label %if.then15, label %if.end16

if.then15:                                        ; preds = %if.then8
  %10 = load float, ptr %floatVal, align 4
  %m_currentLight = getelementptr inbounds %"class.Assimp::OpenGEX::OpenGEXImporter", ptr %this1, i32 0, i32 12
  %11 = load ptr, ptr %m_currentLight, align 8
  %mAttenuationQuadratic = getelementptr inbounds %struct.aiLight, ptr %11, i32 0, i32 7
  store float %10, ptr %mAttenuationQuadratic, align 4
  br label %if.end16

lpad:                                             ; preds = %if.end
  %12 = landingpad { ptr, i32 }
          cleanup
  %13 = extractvalue { ptr, i32 } %12, 0
  store ptr %13, ptr %exn.slot, align 8
  %14 = extractvalue { ptr, i32 } %12, 1
  store i32 %14, ptr %ehselector.slot, align 4
  br label %ehcleanup

lpad3:                                            ; preds = %invoke.cont
  %15 = landingpad { ptr, i32 }
          cleanup
  %16 = extractvalue { ptr, i32 } %15, 0
  store ptr %16, ptr %exn.slot, align 8
  %17 = extractvalue { ptr, i32 } %15, 1
  store i32 %17, ptr %ehselector.slot, align 4
  call void @_ZNSt7__cxx1112basic_stringIcSt11char_traitsIcESaIcEED1Ev(ptr noundef nonnull align 8 dereferenceable(32) %ref.tmp) #5
  br label %ehcleanup

ehcleanup:                                        ; preds = %lpad3, %lpad
  call void @_ZNSaIcED1Ev(ptr noundef nonnull align 1 dereferenceable(1) %ref.tmp2) #5
  br label %eh.resume

if.end16:                                         ; preds = %if.then15, %if.then8
  br label %if.end17

if.end17:                                         ; preds = %if.end16, %if.then6
  br label %if.end18

if.end18:                                         ; preds = %if.end17, %invoke.cont4, %if.then
  ret void

eh.resume:                                        ; preds = %ehcleanup
  %exn = load ptr, ptr %exn.slot, align 8
  %sel = load i32, ptr %ehselector.slot, align 4
  %lpad.val = insertvalue { ptr, i32 } poison, ptr %exn, 0
  %lpad.val19 = insertvalue { ptr, i32 } %lpad.val, i32 %sel, 1
  resume { ptr, i32 } %lpad.val19
}