; Function Attrs: mustprogress uwtable
define hidden void @_ZN6Assimp7OpenGEX15OpenGEXImporter15handleAttenNodeEPN10ODDLParser7DDLNodeEP7aiScene(ptr nocapture noundef nonnull readonly align 8 dereferenceable(776) %this, ptr noundef %node, ptr nocapture noundef readnone %0) local_unnamed_addr #7 align 2 personality ptr @__gxx_personality_v0 {
entry:
  %ref.tmp = alloca %"class.std::__cxx11::basic_string", align 8
  %ref.tmp2 = alloca %"class.std::allocator.0", align 1
  %cmp = icmp eq ptr %node, null
  br i1 %cmp, label %if.end18, label %if.end

if.end:                                           ; preds = %entry
  call void @_ZNSaIcEC1Ev(ptr noundef nonnull align 1 dereferenceable(1) %ref.tmp2) #25
  %call.i6 = invoke noundef ptr @_ZNSt7__cxx1112basic_stringIcSt11char_traitsIcESaIcEE13_M_local_dataEv(ptr noundef nonnull align 8 dereferenceable(32) %ref.tmp)
          to label %call.i.noexc unwind label %lpad

call.i.noexc:                                     ; preds = %if.end
  invoke void @_ZNSt7__cxx1112basic_stringIcSt11char_traitsIcESaIcEE12_Alloc_hiderC1EPcRKS3_(ptr noundef nonnull align 8 dereferenceable(8) %ref.tmp, ptr noundef %call.i6, ptr noundef nonnull align 1 dereferenceable(1) %ref.tmp2)
          to label %.noexc unwind label %lpad

.noexc:                                           ; preds = %call.i.noexc
  invoke void @_ZNSt7__cxx1112basic_stringIcSt11char_traitsIcESaIcEE12_M_constructIPKcEEvT_S8_St20forward_iterator_tag(ptr noundef nonnull align 8 dereferenceable(32) %ref.tmp, ptr noundef nonnull @.str.31, ptr noundef nonnull getelementptr inbounds ([6 x i8], ptr @.str.31, i64 0, i64 5))
          to label %invoke.cont unwind label %lpad.i

lpad.i:                                           ; preds = %.noexc
  %1 = landingpad { ptr, i32 }
          cleanup
  call void @_ZNSaIcED2Ev(ptr noundef nonnull align 1 dereferenceable(1) %ref.tmp) #25
  br label %ehcleanup

invoke.cont:                                      ; preds = %.noexc
  %call = invoke noundef ptr @_ZN10ODDLParser7DDLNode18findPropertyByNameERKNSt7__cxx1112basic_stringIcSt11char_traitsIcESaIcEEE(ptr noundef nonnull align 8 dereferenceable(136) %node, ptr noundef nonnull align 8 dereferenceable(32) %ref.tmp)
          to label %invoke.cont4 unwind label %lpad3

invoke.cont4:                                     ; preds = %invoke.cont
  call void @_ZNSt7__cxx1112basic_stringIcSt11char_traitsIcESaIcEED1Ev(ptr noundef nonnull align 8 dereferenceable(32) %ref.tmp) #25
  call void @_ZNSaIcED1Ev(ptr noundef nonnull align 1 dereferenceable(1) %ref.tmp2) #25
  %cmp5.not = icmp eq ptr %call, null
  br i1 %cmp5.not, label %if.end18, label %if.then6

if.then6:                                         ; preds = %invoke.cont4
  %m_value = getelementptr inbounds i8, ptr %call, i64 8
  %2 = load ptr, ptr %m_value, align 8
  %cmp7.not = icmp eq ptr %2, null
  br i1 %cmp7.not, label %if.end18, label %if.then8

if.then8:                                         ; preds = %if.then6
  %call9 = call noundef ptr @_ZNK10ODDLParser7DDLNode8getValueEv(ptr noundef nonnull align 8 dereferenceable(136) %node)
  %call10 = call noundef float @_ZNK10ODDLParser5Value8getFloatEv(ptr noundef nonnull align 8 dereferenceable(32) %call9)
  %3 = load ptr, ptr %m_value, align 8
  %call12 = call noundef ptr @_ZNK10ODDLParser5Value9getStringEv(ptr noundef nonnull align 8 dereferenceable(32) %3)
  %call13 = call i32 @strncmp(ptr noundef nonnull dereferenceable(6) @.str.32, ptr noundef nonnull dereferenceable(1) %call12, i64 noundef 5) #30
  %cmp14 = icmp eq i32 %call13, 0
  br i1 %cmp14, label %if.then15, label %if.end18

if.then15:                                        ; preds = %if.then8
  %m_currentLight = getelementptr inbounds i8, ptr %this, i64 632
  %4 = load ptr, ptr %m_currentLight, align 8
  %mAttenuationQuadratic = getelementptr inbounds i8, ptr %4, i64 1076
  store float %call10, ptr %mAttenuationQuadratic, align 4
  br label %if.end18

lpad:                                             ; preds = %call.i.noexc, %if.end
  %5 = landingpad { ptr, i32 }
          cleanup
  br label %ehcleanup

lpad3:                                            ; preds = %invoke.cont
  %6 = landingpad { ptr, i32 }
          cleanup
  call void @_ZNSt7__cxx1112basic_stringIcSt11char_traitsIcESaIcEED1Ev(ptr noundef nonnull align 8 dereferenceable(32) %ref.tmp) #25
  br label %ehcleanup

ehcleanup:                                        ; preds = %lpad, %lpad.i, %lpad3
  %.pn = phi { ptr, i32 } [ %6, %lpad3 ], [ %5, %lpad ], [ %1, %lpad.i ]
  call void @_ZNSaIcED1Ev(ptr noundef nonnull align 1 dereferenceable(1) %ref.tmp2) #25
  resume { ptr, i32 } %.pn

if.end18:                                         ; preds = %if.then6, %if.then15, %if.then8, %entry, %invoke.cont4
  ret void
}